target datalayout = "e-m:e-p270:32:32-p271:32:32-p272:64:64-i64:64-i128:128-f80:128-n8:16:32:64-S128"
target triple = "x86_64-pc-linux-gnu"

; Function Attrs: mustprogress nounwind uwtable
define dso_local noundef i32 @_ZN15StatementAssign22compound_to_binary_opsE10eAssignOps(i32 noundef %0) #4 align 2 {
  %2 = alloca i32, align 4
  %3 = alloca i32, align 4
  store i32 %0, ptr %2, align 4
  store i32 18, ptr %3, align 4
  %4 = load i32, ptr %2, align 4
  switch i32 %4, label %19 [
    i32 4, label %5
    i32 5, label %6
    i32 1, label %7
    i32 2, label %8
    i32 3, label %9
    i32 8, label %10
    i32 9, label %11
    i32 10, label %12
    i32 12, label %13
    i32 14, label %14
    i32 11, label %15
    i32 13, label %16
    i32 6, label %17
    i32 7, label %18
  ]

5:                                                ; preds = %1
  store i32 0, ptr %3, align 4
  br label %20

6:                                                ; preds = %1
  store i32 1, ptr %3, align 4
  br label %20

7:                                                ; preds = %1
  store i32 2, ptr %3, align 4
  br label %20

8:                                                ; preds = %1
  store i32 3, ptr %3, align 4
  br label %20

9:                                                ; preds = %1
  store i32 4, ptr %3, align 4
  br label %20

10:                                               ; preds = %1
  store i32 14, ptr %3, align 4
  br label %20

11:                                               ; preds = %1
  store i32 13, ptr %3, align 4
  br label %20

12:                                               ; preds = %1
  store i32 15, ptr %3, align 4
  br label %20

13:                                               ; preds = %1
  store i32 1, ptr %3, align 4
  br label %20

14:                                               ; preds = %1
  store i32 1, ptr %3, align 4
  br label %20

15:                                               ; preds = %1
  store i32 0, ptr %3, align 4
  br label %20

16:                                               ; preds = %1
  store i32 0, ptr %3, align 4
  br label %20

17:                                               ; preds = %1
  store i32 17, ptr %3, align 4
  br label %20

18:                                               ; preds = %1
  store i32 16, ptr %3, align 4
  br label %20

19:                                               ; preds = %1
  store i32 18, ptr %3, align 4
  br label %20

20:                                               ; preds = %19, %18, %17, %16, %15, %14, %13, %12, %11, %10, %9, %8, %7, %6, %5
  %21 = load i32, ptr %3, align 4
  ret i32 %21
}