; Function Attrs: mustprogress nofree norecurse nosync nounwind willreturn memory(none) uwtable
define dso_local noundef i32 @_ZN15StatementAssign22compound_to_binary_opsE10eAssignOps(i32 noundef %0) local_unnamed_addr #5 align 2 {
  %switch.tableidx = add i32 %0, -1
  %2 = icmp ult i32 %switch.tableidx, 14
  br i1 %2, label %switch.lookup, label %4

switch.lookup:                                    ; preds = %1
  %3 = zext nneg i32 %switch.tableidx to i64
  %switch.gep = getelementptr inbounds [14 x i32], ptr @switch.table._ZN15StatementAssign22compound_to_binary_opsE10eAssignOps, i64 0, i64 %3
  %switch.load = load i32, ptr %switch.gep, align 4
  br label %4

4:                                                ; preds = %1, %switch.lookup
  %.0 = phi i32 [ %switch.load, %switch.lookup ], [ 18, %1 ]
  ret i32 %.0
}